target datalayout = "e-m:e-p270:32:32-p271:32:32-p272:64:64-i64:64-i128:128-f80:128-n8:16:32:64-S128"
target triple = "x86_64-pc-linux-gnu"

%struct.LogicalRepWorker = type { i32, i64, i8, i16, ptr, i32, i32, i32, i32, i8, i64, i8, ptr, i32, i8, i64, i64, i64, i64, i64 }

@ApplyMessageContext = dso_local global ptr null, align 8
@ApplyContext = dso_local global ptr null, align 8
@MyLogicalRepWorker = external global ptr, align 8
@LogicalStreamingContext = internal global ptr null, align 8
@.str.3 = private unnamed_addr constant [9 x i8] c"worker.c\00", align 1
@stream_fd = internal global ptr null, align 8
@CurrentMemoryContext = external global ptr, align 8
@.str.68 = private unnamed_addr constant [14 x i8] c"%u-%u.changes\00", align 1
@.str.70 = private unnamed_addr constant [39 x i8] c"opening file \22%s\22 for streamed changes\00", align 1
@__func__.stream_open_file = private unnamed_addr constant [17 x i8] c"stream_open_file\00", align 1

; Function Attrs: inlinehint nounwind uwtable
define internal void @changes_filename(ptr noundef %0, i32 noundef %1, i32 noundef %2) #3 {
  %4 = alloca ptr, align 8
  %5 = alloca i32, align 4
  %6 = alloca i32, align 4
  store ptr %0, ptr %4, align 8
  store i32 %1, ptr %5, align 4
  store i32 %2, ptr %6, align 4
  %7 = load ptr, ptr %4, align 8
  %8 = load i32, ptr %5, align 4
  %9 = load i32, ptr %6, align 4
  %10 = call i32 (ptr, i64, ptr, ...) @pg_snprintf(ptr noundef %7, i64 noundef 1024, ptr noundef @.str.68, i32 noundef %8, i32 noundef %9)
  ret void
}

; Function Attrs: nounwind uwtable
define internal void @end_replication_step() #0 {
  call void @PopActiveSnapshot()
  call void @CommandCounterIncrement()
  ret void
}

; Function Attrs: nounwind uwtable
define internal void @stream_open_file(i32 noundef %0, i32 noundef %1, i1 noundef zeroext %2) #0 {
  %4 = alloca i32, align 4
  %5 = alloca i32, align 4
  %6 = alloca i8, align 1
  %7 = alloca [1024 x i8], align 16
  %8 = alloca ptr, align 8
  store i32 %0, ptr %4, align 4
  store i32 %1, ptr %5, align 4
  %9 = zext i1 %2 to i8
  store i8 %9, ptr %6, align 1
  call void @llvm.lifetime.start.p0(i64 1024, ptr %7) #12
  call void @llvm.lifetime.start.p0(i64 8, ptr %8) #12
  %10 = getelementptr inbounds [1024 x i8], ptr %7, i64 0, i64 0
  %11 = load i32, ptr %4, align 4
  %12 = load i32, ptr %5, align 4
  call void @changes_filename(ptr noundef %10, i32 noundef %11, i32 noundef %12)
  br label %13

13:                                               ; preds = %3
  br i1 false, label %14, label %16

14:                                               ; preds = %13
  %15 = call zeroext i1 @errstart_cold(i32 noundef 14, ptr noundef null) #13
  br i1 %15, label %18, label %21

16:                                               ; preds = %13
  %17 = call zeroext i1 @errstart(i32 noundef 14, ptr noundef null)
  br i1 %17, label %18, label %21

18:                                               ; preds = %16, %14
  %19 = getelementptr inbounds [1024 x i8], ptr %7, i64 0, i64 0
  %20 = call i32 (ptr, ...) @errmsg_internal(ptr noundef @.str.70, ptr noundef %19)
  call void @errfinish(ptr noundef @.str.3, i32 noundef 4336, ptr noundef @__func__.stream_open_file)
  br label %21

21:                                               ; preds = %18, %16, %14
  br label %22

22:                                               ; preds = %21
  br label %23

23:                                               ; preds = %22
  %24 = load ptr, ptr @LogicalStreamingContext, align 8
  %25 = call ptr @MemoryContextSwitchTo(ptr noundef %24)
  store ptr %25, ptr %8, align 8
  %26 = load i8, ptr %6, align 1, !range !4, !noundef !5
  %27 = trunc i8 %26 to i1
  br i1 %27, label %28, label %34

28:                                               ; preds = %23
  %29 = load ptr, ptr @MyLogicalRepWorker, align 8
  %30 = getelementptr inbounds nuw %struct.LogicalRepWorker, ptr %29, i32 0, i32 12
  %31 = load ptr, ptr %30, align 8
  %32 = getelementptr inbounds [1024 x i8], ptr %7, i64 0, i64 0
  %33 = call ptr @BufFileCreateFileSet(ptr noundef %31, ptr noundef %32)
  store ptr %33, ptr @stream_fd, align 8
  br label %42

34:                                               ; preds = %23
  %35 = load ptr, ptr @MyLogicalRepWorker, align 8
  %36 = getelementptr inbounds nuw %struct.LogicalRepWorker, ptr %35, i32 0, i32 12
  %37 = load ptr, ptr %36, align 8
  %38 = getelementptr inbounds [1024 x i8], ptr %7, i64 0, i64 0
  %39 = call ptr @BufFileOpenFileSet(ptr noundef %37, ptr noundef %38, i32 noundef 2, i1 noundef zeroext false)
  store ptr %39, ptr @stream_fd, align 8
  %40 = load ptr, ptr @stream_fd, align 8
  %41 = call i32 @BufFileSeek(ptr noundef %40, i32 noundef 0, i64 noundef 0, i32 noundef 2)
  br label %42

42:                                               ; preds = %34, %28
  %43 = load ptr, ptr %8, align 8
  %44 = call ptr @MemoryContextSwitchTo(ptr noundef %43)
  call void @llvm.lifetime.end.p0(i64 8, ptr %8) #12
  call void @llvm.lifetime.end.p0(i64 1024, ptr %7) #12
  ret void
}

; Function Attrs: inlinehint nounwind uwtable
define internal ptr @MemoryContextSwitchTo(ptr noundef %0) #3 {
  %2 = alloca ptr, align 8
  %3 = alloca ptr, align 8
  store ptr %0, ptr %2, align 8
  call void @llvm.lifetime.start.p0(i64 8, ptr %3) #12
  %4 = load ptr, ptr @CurrentMemoryContext, align 8
  store ptr %4, ptr %3, align 8
  %5 = load ptr, ptr %2, align 8
  store ptr %5, ptr @CurrentMemoryContext, align 8
  %6 = load ptr, ptr %3, align 8
  call void @llvm.lifetime.end.p0(i64 8, ptr %3) #12
  ret ptr %6
}

; Function Attrs: nounwind uwtable
define internal void @begin_replication_step() #0 {
  call void @SetCurrentStatementStartTimestamp()
  %1 = call zeroext i1 @IsTransactionState()
  br i1 %1, label %3, label %2

2:                                                ; preds = %0
  call void @StartTransactionCommand()
  call void @maybe_reread_subscription()
  br label %3

3:                                                ; preds = %2, %0
  %4 = call ptr @GetTransactionSnapshot()
  call void @PushActiveSnapshot(ptr noundef %4)
  %5 = load ptr, ptr @ApplyMessageContext, align 8
  %6 = call ptr @MemoryContextSwitchTo(ptr noundef %5)
  ret void
}

; Function Attrs: nounwind uwtable
define dso_local void @stream_start_internal(i32 noundef %0, i1 noundef zeroext %1) #0 {
  %3 = alloca i32, align 4
  %4 = alloca i8, align 1
  %5 = alloca ptr, align 8
  store i32 %0, ptr %3, align 4
  %6 = zext i1 %1 to i8
  store i8 %6, ptr %4, align 1
  call void @begin_replication_step()
  %7 = load ptr, ptr @MyLogicalRepWorker, align 8
  %8 = getelementptr inbounds nuw %struct.LogicalRepWorker, ptr %7, i32 0, i32 12
  %9 = load ptr, ptr %8, align 8
  %10 = icmp ne ptr %9, null
  br i1 %10, label %22, label %11

11:                                               ; preds = %2
  call void @llvm.lifetime.start.p0(i64 8, ptr %5) #12
  %12 = load ptr, ptr @ApplyContext, align 8
  %13 = call ptr @MemoryContextSwitchTo(ptr noundef %12)
  store ptr %13, ptr %5, align 8
  %14 = call ptr @palloc(i64 noundef 44)
  %15 = load ptr, ptr @MyLogicalRepWorker, align 8
  %16 = getelementptr inbounds nuw %struct.LogicalRepWorker, ptr %15, i32 0, i32 12
  store ptr %14, ptr %16, align 8
  %17 = load ptr, ptr @MyLogicalRepWorker, align 8
  %18 = getelementptr inbounds nuw %struct.LogicalRepWorker, ptr %17, i32 0, i32 12
  %19 = load ptr, ptr %18, align 8
  call void @FileSetInit(ptr noundef %19)
  %20 = load ptr, ptr %5, align 8
  %21 = call ptr @MemoryContextSwitchTo(ptr noundef %20)
  call void @llvm.lifetime.end.p0(i64 8, ptr %5) #12
  br label %22

22:                                               ; preds = %11, %2
  %23 = load ptr, ptr @MyLogicalRepWorker, align 8
  %24 = getelementptr inbounds nuw %struct.LogicalRepWorker, ptr %23, i32 0, i32 7
  %25 = load i32, ptr %24, align 8
  %26 = load i32, ptr %3, align 4
  %27 = load i8, ptr %4, align 1, !range !4, !noundef !5
  %28 = trunc i8 %27 to i1
  call void @stream_open_file(i32 noundef %25, i32 noundef %26, i1 noundef zeroext %28)
  %29 = load i8, ptr %4, align 1, !range !4, !noundef !5
  %30 = trunc i8 %29 to i1
  br i1 %30, label %36, label %31

31:                                               ; preds = %22
  %32 = load ptr, ptr @MyLogicalRepWorker, align 8
  %33 = getelementptr inbounds nuw %struct.LogicalRepWorker, ptr %32, i32 0, i32 7
  %34 = load i32, ptr %33, align 8
  %35 = load i32, ptr %3, align 4
  call void @subxact_info_read(i32 noundef %34, i32 noundef %35)
  br label %36

36:                                               ; preds = %31, %22
  call void @end_replication_step()
  ret void
}