; Function Attrs: nounwind uwtable
define dso_local void @stream_start_internal(i32 noundef %0, i1 noundef zeroext %1) local_unnamed_addr #0 {
  %3 = alloca [1024 x i8], align 16
  tail call void @SetCurrentStatementStartTimestamp() #17
  %4 = tail call zeroext i1 @IsTransactionState() #17
  br i1 %4, label %begin_replication_step.exit, label %5

5:                                                ; preds = %2
  tail call void @StartTransactionCommand() #17
  tail call void @maybe_reread_subscription()
  br label %begin_replication_step.exit

begin_replication_step.exit:                      ; preds = %2, %5
  %6 = tail call ptr @GetTransactionSnapshot() #17
  tail call void @PushActiveSnapshot(ptr noundef %6) #17
  %7 = load ptr, ptr @ApplyMessageContext, align 8
  store ptr %7, ptr @CurrentMemoryContext, align 8
  %8 = load ptr, ptr @MyLogicalRepWorker, align 8
  %9 = getelementptr inbounds nuw i8, ptr %8, i64 72
  %10 = load ptr, ptr %9, align 8
  %.not = icmp eq ptr %10, null
  br i1 %.not, label %11, label %16

11:                                               ; preds = %begin_replication_step.exit
  %12 = load ptr, ptr @ApplyContext, align 8
  store ptr %12, ptr @CurrentMemoryContext, align 8
  %13 = tail call ptr @palloc(i64 noundef 44) #17
  %14 = load ptr, ptr @MyLogicalRepWorker, align 8
  %15 = getelementptr inbounds nuw i8, ptr %14, i64 72
  store ptr %13, ptr %15, align 8
  tail call void @FileSetInit(ptr noundef %13) #17
  store ptr %7, ptr @CurrentMemoryContext, align 8
  %.pre = load ptr, ptr @MyLogicalRepWorker, align 8
  br label %16

16:                                               ; preds = %11, %begin_replication_step.exit
  %17 = phi ptr [ %.pre, %11 ], [ %8, %begin_replication_step.exit ]
  %18 = getelementptr inbounds nuw i8, ptr %17, i64 40
  %19 = load i32, ptr %18, align 8
  call void @llvm.lifetime.start.p0(i64 1024, ptr nonnull %3) #17
  %20 = call i32 (ptr, i64, ptr, ...) @pg_snprintf(ptr noundef nonnull %3, i64 noundef 1024, ptr noundef nonnull @.str.68, i32 noundef %19, i32 noundef %0) #17
  %21 = call zeroext i1 @errstart(i32 noundef 14, ptr noundef null) #17
  br i1 %21, label %22, label %24

22:                                               ; preds = %16
  %23 = call i32 (ptr, ...) @errmsg_internal(ptr noundef nonnull @.str.70, ptr noundef nonnull %3) #17
  call void @errfinish(ptr noundef nonnull @.str.3, i32 noundef 4336, ptr noundef nonnull @__func__.stream_open_file) #17
  br label %24

24:                                               ; preds = %22, %16
  %25 = load ptr, ptr @LogicalStreamingContext, align 8
  %26 = load ptr, ptr @CurrentMemoryContext, align 8
  store ptr %25, ptr @CurrentMemoryContext, align 8
  %27 = load ptr, ptr @MyLogicalRepWorker, align 8
  %28 = getelementptr inbounds nuw i8, ptr %27, i64 72
  %29 = load ptr, ptr %28, align 8
  br i1 %1, label %stream_open_file.exit.thread, label %31

stream_open_file.exit.thread:                     ; preds = %24
  %30 = call ptr @BufFileCreateFileSet(ptr noundef %29, ptr noundef nonnull %3) #17
  store ptr %30, ptr @stream_fd, align 8
  store ptr %26, ptr @CurrentMemoryContext, align 8
  call void @llvm.lifetime.end.p0(i64 1024, ptr nonnull %3) #17
  br label %37

31:                                               ; preds = %24
  %32 = call ptr @BufFileOpenFileSet(ptr noundef %29, ptr noundef nonnull %3, i32 noundef 2, i1 noundef zeroext false) #17
  store ptr %32, ptr @stream_fd, align 8
  %33 = call i32 @BufFileSeek(ptr noundef %32, i32 noundef 0, i64 noundef 0, i32 noundef 2) #17
  store ptr %26, ptr @CurrentMemoryContext, align 8
  call void @llvm.lifetime.end.p0(i64 1024, ptr nonnull %3) #17
  %34 = load ptr, ptr @MyLogicalRepWorker, align 8
  %35 = getelementptr inbounds nuw i8, ptr %34, i64 40
  %36 = load i32, ptr %35, align 8
  call fastcc void @subxact_info_read(i32 noundef %36, i32 noundef %0)
  br label %37

37:                                               ; preds = %stream_open_file.exit.thread, %31
  call void @PopActiveSnapshot() #17
  call void @CommandCounterIncrement() #17
  ret void
}